target datalayout = "e-m:e-p270:32:32-p271:32:32-p272:64:64-i64:64-i128:128-f80:128-n8:16:32:64-S128"
target triple = "x86_64-pc-linux-gnu"

%struct.Scl_Tree_t_ = type { ptr, ptr, i64, i32, i32, i32, ptr, ptr, i64, ptr }

; Function Attrs: nounwind uwtable
define internal i32 @Scl_LibertyCharIsSpace(i8 noundef signext %0) #0 {
  %2 = alloca i8, align 1
  store i8 %0, ptr %2, align 1
  %3 = load i8, ptr %2, align 1
  %4 = sext i8 %3 to i32
  %5 = icmp eq i32 %4, 32
  br i1 %5, label %22, label %6

6:                                                ; preds = %1
  %7 = load i8, ptr %2, align 1
  %8 = sext i8 %7 to i32
  %9 = icmp eq i32 %8, 9
  br i1 %9, label %22, label %10

10:                                               ; preds = %6
  %11 = load i8, ptr %2, align 1
  %12 = sext i8 %11 to i32
  %13 = icmp eq i32 %12, 13
  br i1 %13, label %22, label %14

14:                                               ; preds = %10
  %15 = load i8, ptr %2, align 1
  %16 = sext i8 %15 to i32
  %17 = icmp eq i32 %16, 10
  br i1 %17, label %22, label %18

18:                                               ; preds = %14
  %19 = load i8, ptr %2, align 1
  %20 = sext i8 %19 to i32
  %21 = icmp eq i32 %20, 92
  br label %22

22:                                               ; preds = %18, %14, %10, %6, %1
  %23 = phi i1 [ true, %14 ], [ true, %10 ], [ true, %6 ], [ true, %1 ], [ %21, %18 ]
  %24 = zext i1 %23 to i32
  ret i32 %24
}

; Function Attrs: nounwind uwtable
define internal i32 @Scl_LibertySkipSpaces(ptr noundef %0, ptr noundef %1, ptr noundef %2, i32 noundef %3) #0 {
  %5 = alloca ptr, align 8
  %6 = alloca ptr, align 8
  %7 = alloca ptr, align 8
  %8 = alloca i32, align 4
  %9 = alloca ptr, align 8
  store ptr %0, ptr %5, align 8
  store ptr %1, ptr %6, align 8
  store ptr %2, ptr %7, align 8
  store i32 %3, ptr %8, align 4
  %10 = load ptr, ptr %6, align 8
  %11 = load ptr, ptr %10, align 8
  store ptr %11, ptr %9, align 8
  br label %12

12:                                               ; preds = %37, %4
  %13 = load ptr, ptr %9, align 8
  %14 = load ptr, ptr %7, align 8
  %15 = icmp ult ptr %13, %14
  br i1 %15, label %16, label %40

16:                                               ; preds = %12
  %17 = load ptr, ptr %9, align 8
  %18 = load i8, ptr %17, align 1
  %19 = sext i8 %18 to i32
  %20 = icmp eq i32 %19, 10
  br i1 %20, label %21, label %30

21:                                               ; preds = %16
  %22 = load ptr, ptr %5, align 8
  %23 = getelementptr inbounds %struct.Scl_Tree_t_, ptr %22, i32 0, i32 3
  %24 = load i32, ptr %23, align 8
  %25 = add nsw i32 %24, 1
  store i32 %25, ptr %23, align 8
  %26 = load i32, ptr %8, align 4
  %27 = icmp ne i32 %26, 0
  br i1 %27, label %28, label %29

28:                                               ; preds = %21
  br label %40

29:                                               ; preds = %21
  br label %30

30:                                               ; preds = %29, %16
  %31 = load ptr, ptr %9, align 8
  %32 = load i8, ptr %31, align 1
  %33 = call i32 @Scl_LibertyCharIsSpace(i8 noundef signext %32)
  %34 = icmp ne i32 %33, 0
  br i1 %34, label %36, label %35

35:                                               ; preds = %30
  br label %40

36:                                               ; preds = %30
  br label %37

37:                                               ; preds = %36
  %38 = load ptr, ptr %9, align 8
  %39 = getelementptr inbounds i8, ptr %38, i32 1
  store ptr %39, ptr %9, align 8
  br label %12, !llvm.loop !16

40:                                               ; preds = %35, %28, %12
  %41 = load ptr, ptr %9, align 8
  %42 = load ptr, ptr %6, align 8
  store ptr %41, ptr %42, align 8
  %43 = load ptr, ptr %9, align 8
  %44 = load ptr, ptr %7, align 8
  %45 = icmp eq ptr %43, %44
  %46 = zext i1 %45 to i32
  ret i32 %46
}