; Function Attrs: nofree norecurse nosync nounwind memory(read, argmem: readwrite, inaccessiblemem: none) uwtable
define internal fastcc range(i32 0, 2) i32 @Scl_LibertySkipSpaces(ptr noundef captures(none) %0, ptr noundef captures(none) %1, ptr noundef readnone %2, i32 noundef range(i32 0, 2) %3) unnamed_addr #7 {
  %5 = load ptr, ptr %1, align 8
  %6 = getelementptr inbounds nuw i8, ptr %0, i64 24
  %7 = icmp ult ptr %5, %2
  br i1 %7, label %.lr.ph, label %._crit_edge

.lr.ph:                                           ; preds = %4
  %8 = ptrtoint ptr %5 to i64
  %9 = ptrtoint ptr %2 to i64
  %.not = icmp eq i32 %3, 0
  %10 = sub i64 %9, %8
  %scevgep25 = getelementptr i8, ptr %5, i64 %10
  br i1 %.not, label %.lr.ph.split.us, label %.lr.ph.split

.lr.ph.split.us:                                  ; preds = %.lr.ph, %Scl_LibertyCharIsSpace.exit.thread.us
  %.014.us = phi ptr [ %17, %Scl_LibertyCharIsSpace.exit.thread.us ], [ %5, %.lr.ph ]
  %11 = load i8, ptr %.014.us, align 1
  %12 = icmp eq i8 %11, 10
  br i1 %12, label %thread-pre-split.us, label %15

thread-pre-split.us:                              ; preds = %.lr.ph.split.us
  %13 = load i32, ptr %6, align 8
  %14 = add nsw i32 %13, 1
  store i32 %14, ptr %6, align 8
  %.pr.us = load i8, ptr %.014.us, align 1
  br label %15

15:                                               ; preds = %thread-pre-split.us, %.lr.ph.split.us
  %16 = phi i8 [ %.pr.us, %thread-pre-split.us ], [ %11, %.lr.ph.split.us ]
  switch i8 %16, label %._crit_edge [
    i8 32, label %Scl_LibertyCharIsSpace.exit.thread.us
    i8 13, label %Scl_LibertyCharIsSpace.exit.thread.us
    i8 10, label %Scl_LibertyCharIsSpace.exit.thread.us
    i8 9, label %Scl_LibertyCharIsSpace.exit.thread.us
    i8 92, label %Scl_LibertyCharIsSpace.exit.thread.us
  ]

Scl_LibertyCharIsSpace.exit.thread.us:            ; preds = %15, %15, %15, %15, %15
  %17 = getelementptr inbounds nuw i8, ptr %.014.us, i64 1
  %exitcond26.not = icmp eq ptr %17, %2
  br i1 %exitcond26.not, label %._crit_edge, label %.lr.ph.split.us, !llvm.loop !14

.lr.ph.split:                                     ; preds = %.lr.ph, %Scl_LibertyCharIsSpace.exit.thread
  %.014 = phi ptr [ %21, %Scl_LibertyCharIsSpace.exit.thread ], [ %5, %.lr.ph ]
  %18 = load i8, ptr %.014, align 1
  switch i8 %18, label %._crit_edge [
    i8 10, label %._crit_edge15
    i8 32, label %Scl_LibertyCharIsSpace.exit.thread
    i8 13, label %Scl_LibertyCharIsSpace.exit.thread
    i8 92, label %Scl_LibertyCharIsSpace.exit.thread
    i8 9, label %Scl_LibertyCharIsSpace.exit.thread
  ]

._crit_edge15:                                    ; preds = %.lr.ph.split
  %19 = load i32, ptr %6, align 8
  %20 = add nsw i32 %19, 1
  store i32 %20, ptr %6, align 8
  br label %._crit_edge

Scl_LibertyCharIsSpace.exit.thread:               ; preds = %.lr.ph.split, %.lr.ph.split, %.lr.ph.split, %.lr.ph.split
  %21 = getelementptr inbounds nuw i8, ptr %.014, i64 1
  %exitcond.not = icmp eq ptr %21, %2
  br i1 %exitcond.not, label %._crit_edge, label %.lr.ph.split, !llvm.loop !14

._crit_edge:                                      ; preds = %Scl_LibertyCharIsSpace.exit.thread, %.lr.ph.split, %Scl_LibertyCharIsSpace.exit.thread.us, %15, %._crit_edge15, %4
  %.0.lcssa = phi ptr [ %.014, %._crit_edge15 ], [ %5, %4 ], [ %.014.us, %15 ], [ %scevgep25, %Scl_LibertyCharIsSpace.exit.thread.us ], [ %.014, %.lr.ph.split ], [ %scevgep25, %Scl_LibertyCharIsSpace.exit.thread ]
  store ptr %.0.lcssa, ptr %1, align 8
  %22 = icmp eq ptr %.0.lcssa, %2
  %23 = zext i1 %22 to i32
  ret i32 %23
}